target datalayout = "e-m:e-p270:32:32-p271:32:32-p272:64:64-i64:64-i128:128-f80:128-n8:16:32:64-S128"
target triple = "x86_64-pc-linux-gnu"

@.str.88 = private unnamed_addr constant [27 x i8] c"---- START OF PACKET ----\0A\00", align 1
@.str.89 = private unnamed_addr constant [3 x i8] c"*\0A\00", align 1
@.str.90 = private unnamed_addr constant [28 x i8] c"*---- START OF RECORD ----\0A\00", align 1
@.str.91 = private unnamed_addr constant [29 x i8] c"*---- RECORD TRUNCATED ----\0A\00", align 1
@.str.92 = private unnamed_addr constant [28 x i8] c"** Record Content-type: %d\0A\00", align 1
@.str.93 = private unnamed_addr constant [29 x i8] c"** Record Version: %02x%02x\0A\00", align 1
@.str.94 = private unnamed_addr constant [21 x i8] c"** Record Epoch: %d\0A\00", align 1
@.str.95 = private unnamed_addr constant [21 x i8] c"** Record Sequence: \00", align 1
@.str.96 = private unnamed_addr constant [5 x i8] c"%02x\00", align 1
@.str.97 = private unnamed_addr constant [23 x i8] c"\0A** Record Length: %d\0A\00", align 1
@.str.98 = private unnamed_addr constant [49 x i8] c"**---- START OF HANDSHAKE MESSAGE FRAGMENT ----\0A\00", align 1
@.str.99 = private unnamed_addr constant [50 x i8] c"**---- HANDSHAKE MESSAGE FRAGMENT ENCRYPTED ----\0A\00", align 1
@.str.100 = private unnamed_addr constant [50 x i8] c"**---- HANDSHAKE MESSAGE FRAGMENT TRUNCATED ----\0A\00", align 1
@.str.101 = private unnamed_addr constant [22 x i8] c"*** Message Type: %d\0A\00", align 1
@.str.102 = private unnamed_addr constant [24 x i8] c"*** Message Length: %d\0A\00", align 1
@.str.103 = private unnamed_addr constant [26 x i8] c"*** Message sequence: %d\0A\00", align 1
@.str.104 = private unnamed_addr constant [33 x i8] c"*** Message Fragment offset: %d\0A\00", align 1
@.str.105 = private unnamed_addr constant [30 x i8] c"*** Message Fragment len: %d\0A\00", align 1
@.str.106 = private unnamed_addr constant [49 x i8] c"***---- HANDSHAKE MESSAGE FRAGMENT INVALID ----\0A\00", align 1
@.str.107 = private unnamed_addr constant [47 x i8] c"**---- END OF HANDSHAKE MESSAGE FRAGMENT ----\0A\00", align 1
@.str.108 = private unnamed_addr constant [26 x i8] c"*---- END OF RECORD ----\0A\00", align 1
@.str.109 = private unnamed_addr constant [26 x i8] c"---- END OF PACKET ----\0A\0A\00", align 1
@stdout = external global ptr, align 8

; Function Attrs: nounwind uwtable
define internal void @dump_data(ptr noundef %0, i32 noundef %1) #0 {
  %3 = alloca ptr, align 8
  %4 = alloca i32, align 4
  %5 = alloca i32, align 4
  %6 = alloca i32, align 4
  %7 = alloca i32, align 4
  %8 = alloca i32, align 4
  %9 = alloca i32, align 4
  %10 = alloca i32, align 4
  %11 = alloca i32, align 4
  %12 = alloca i32, align 4
  %13 = alloca ptr, align 8
  store ptr %0, ptr %3, align 8, !tbaa !11
  store i32 %1, ptr %4, align 4, !tbaa !13
  call void @llvm.lifetime.start.p0(i64 4, ptr %5) #10
  call void @llvm.lifetime.start.p0(i64 4, ptr %6) #10
  call void @llvm.lifetime.start.p0(i64 4, ptr %7) #10
  call void @llvm.lifetime.start.p0(i64 4, ptr %8) #10
  call void @llvm.lifetime.start.p0(i64 4, ptr %9) #10
  call void @llvm.lifetime.start.p0(i64 4, ptr %10) #10
  call void @llvm.lifetime.start.p0(i64 4, ptr %11) #10
  call void @llvm.lifetime.start.p0(i64 4, ptr %12) #10
  call void @llvm.lifetime.start.p0(i64 8, ptr %13) #10
  %14 = call i32 (ptr, ...) @printf(ptr noundef @.str.88)
  %15 = load i32, ptr %4, align 4, !tbaa !13
  store i32 %15, ptr %5, align 4, !tbaa !13
  %16 = load ptr, ptr %3, align 8, !tbaa !11
  store ptr %16, ptr %13, align 8, !tbaa !11
  br label %17

17:                                               ; preds = %213, %2
  %18 = load i32, ptr %5, align 4, !tbaa !13
  %19 = icmp sgt i32 %18, 0
  br i1 %19, label %20, label %214

20:                                               ; preds = %17
  %21 = load i32, ptr %5, align 4, !tbaa !13
  %22 = load i32, ptr %4, align 4, !tbaa !13
  %23 = icmp ne i32 %21, %22
  br i1 %23, label %24, label %26

24:                                               ; preds = %20
  %25 = call i32 (ptr, ...) @printf(ptr noundef @.str.89)
  br label %26

26:                                               ; preds = %24, %20
  %27 = call i32 (ptr, ...) @printf(ptr noundef @.str.90)
  %28 = load i32, ptr %5, align 4, !tbaa !13
  %29 = icmp slt i32 %28, 13
  br i1 %29, label %30, label %32

30:                                               ; preds = %26
  %31 = call i32 (ptr, ...) @printf(ptr noundef @.str.91)
  br label %214

32:                                               ; preds = %26
  %33 = load ptr, ptr %13, align 8, !tbaa !11
  %34 = getelementptr inbounds i8, ptr %33, i64 0
  %35 = load i8, ptr %34, align 1, !tbaa !34
  %36 = zext i8 %35 to i32
  store i32 %36, ptr %7, align 4, !tbaa !13
  %37 = load i32, ptr %7, align 4, !tbaa !13
  %38 = call i32 (ptr, ...) @printf(ptr noundef @.str.92, i32 noundef %37)
  %39 = load ptr, ptr %13, align 8, !tbaa !11
  %40 = getelementptr inbounds i8, ptr %39, i64 1
  %41 = load i8, ptr %40, align 1, !tbaa !34
  %42 = zext i8 %41 to i32
  %43 = load ptr, ptr %13, align 8, !tbaa !11
  %44 = getelementptr inbounds i8, ptr %43, i64 2
  %45 = load i8, ptr %44, align 1, !tbaa !34
  %46 = zext i8 %45 to i32
  %47 = call i32 (ptr, ...) @printf(ptr noundef @.str.93, i32 noundef %42, i32 noundef %46)
  %48 = load ptr, ptr %13, align 8, !tbaa !11
  %49 = getelementptr inbounds i8, ptr %48, i64 3
  %50 = load i8, ptr %49, align 1, !tbaa !34
  %51 = zext i8 %50 to i32
  %52 = shl i32 %51, 8
  %53 = load ptr, ptr %13, align 8, !tbaa !11
  %54 = getelementptr inbounds i8, ptr %53, i64 4
  %55 = load i8, ptr %54, align 1, !tbaa !34
  %56 = zext i8 %55 to i32
  %57 = or i32 %52, %56
  store i32 %57, ptr %12, align 4, !tbaa !13
  %58 = load i32, ptr %12, align 4, !tbaa !13
  %59 = call i32 (ptr, ...) @printf(ptr noundef @.str.94, i32 noundef %58)
  %60 = call i32 (ptr, ...) @printf(ptr noundef @.str.95)
  store i32 5, ptr %6, align 4, !tbaa !13
  br label %61

61:                                               ; preds = %72, %32
  %62 = load i32, ptr %6, align 4, !tbaa !13
  %63 = icmp sle i32 %62, 10
  br i1 %63, label %64, label %75

64:                                               ; preds = %61
  %65 = load ptr, ptr %13, align 8, !tbaa !11
  %66 = load i32, ptr %6, align 4, !tbaa !13
  %67 = sext i32 %66 to i64
  %68 = getelementptr inbounds i8, ptr %65, i64 %67
  %69 = load i8, ptr %68, align 1, !tbaa !34
  %70 = zext i8 %69 to i32
  %71 = call i32 (ptr, ...) @printf(ptr noundef @.str.96, i32 noundef %70)
  br label %72

72:                                               ; preds = %64
  %73 = load i32, ptr %6, align 4, !tbaa !13
  %74 = add nsw i32 %73, 1
  store i32 %74, ptr %6, align 4, !tbaa !13
  br label %61, !llvm.loop !96

75:                                               ; preds = %61
  %76 = load ptr, ptr %13, align 8, !tbaa !11
  %77 = getelementptr inbounds i8, ptr %76, i64 11
  %78 = load i8, ptr %77, align 1, !tbaa !34
  %79 = zext i8 %78 to i32
  %80 = shl i32 %79, 8
  %81 = load ptr, ptr %13, align 8, !tbaa !11
  %82 = getelementptr inbounds i8, ptr %81, i64 12
  %83 = load i8, ptr %82, align 1, !tbaa !34
  %84 = zext i8 %83 to i32
  %85 = or i32 %80, %84
  store i32 %85, ptr %8, align 4, !tbaa !13
  %86 = load i32, ptr %8, align 4, !tbaa !13
  %87 = call i32 (ptr, ...) @printf(ptr noundef @.str.97, i32 noundef %86)
  %88 = load ptr, ptr %13, align 8, !tbaa !11
  %89 = getelementptr inbounds i8, ptr %88, i64 13
  store ptr %89, ptr %13, align 8, !tbaa !11
  %90 = load i32, ptr %5, align 4, !tbaa !13
  %91 = sub nsw i32 %90, 13
  store i32 %91, ptr %5, align 4, !tbaa !13
  %92 = load i32, ptr %7, align 4, !tbaa !13
  %93 = icmp eq i32 %92, 22
  br i1 %93, label %94, label %198

94:                                               ; preds = %75
  %95 = call i32 (ptr, ...) @printf(ptr noundef @.str.98)
  %96 = load i32, ptr %12, align 4, !tbaa !13
  %97 = icmp sgt i32 %96, 0
  br i1 %97, label %98, label %100

98:                                               ; preds = %94
  %99 = call i32 (ptr, ...) @printf(ptr noundef @.str.99)
  br label %197

100:                                              ; preds = %94
  %101 = load i32, ptr %5, align 4, !tbaa !13
  %102 = icmp slt i32 %101, 12
  br i1 %102, label %106, label %103

103:                                              ; preds = %100
  %104 = load i32, ptr %8, align 4, !tbaa !13
  %105 = icmp slt i32 %104, 12
  br i1 %105, label %106, label %108

106:                                              ; preds = %103, %100
  %107 = call i32 (ptr, ...) @printf(ptr noundef @.str.100)
  br label %196

108:                                              ; preds = %103
  %109 = load ptr, ptr %13, align 8, !tbaa !11
  %110 = getelementptr inbounds i8, ptr %109, i64 0
  %111 = load i8, ptr %110, align 1, !tbaa !34
  %112 = zext i8 %111 to i32
  %113 = call i32 (ptr, ...) @printf(ptr noundef @.str.101, i32 noundef %112)
  %114 = load ptr, ptr %13, align 8, !tbaa !11
  %115 = getelementptr inbounds i8, ptr %114, i64 1
  %116 = load i8, ptr %115, align 1, !tbaa !34
  %117 = zext i8 %116 to i32
  %118 = shl i32 %117, 16
  %119 = load ptr, ptr %13, align 8, !tbaa !11
  %120 = getelementptr inbounds i8, ptr %119, i64 2
  %121 = load i8, ptr %120, align 1, !tbaa !34
  %122 = zext i8 %121 to i32
  %123 = shl i32 %122, 8
  %124 = or i32 %118, %123
  %125 = load ptr, ptr %13, align 8, !tbaa !11
  %126 = getelementptr inbounds i8, ptr %125, i64 3
  %127 = load i8, ptr %126, align 1, !tbaa !34
  %128 = zext i8 %127 to i32
  %129 = or i32 %124, %128
  store i32 %129, ptr %9, align 4, !tbaa !13
  %130 = load i32, ptr %9, align 4, !tbaa !13
  %131 = call i32 (ptr, ...) @printf(ptr noundef @.str.102, i32 noundef %130)
  %132 = load ptr, ptr %13, align 8, !tbaa !11
  %133 = getelementptr inbounds i8, ptr %132, i64 4
  %134 = load i8, ptr %133, align 1, !tbaa !34
  %135 = zext i8 %134 to i32
  %136 = shl i32 %135, 8
  %137 = load ptr, ptr %13, align 8, !tbaa !11
  %138 = getelementptr inbounds i8, ptr %137, i64 5
  %139 = load i8, ptr %138, align 1, !tbaa !34
  %140 = zext i8 %139 to i32
  %141 = or i32 %136, %140
  %142 = call i32 (ptr, ...) @printf(ptr noundef @.str.103, i32 noundef %141)
  %143 = load ptr, ptr %13, align 8, !tbaa !11
  %144 = getelementptr inbounds i8, ptr %143, i64 6
  %145 = load i8, ptr %144, align 1, !tbaa !34
  %146 = zext i8 %145 to i32
  %147 = shl i32 %146, 16
  %148 = load ptr, ptr %13, align 8, !tbaa !11
  %149 = getelementptr inbounds i8, ptr %148, i64 7
  %150 = load i8, ptr %149, align 1, !tbaa !34
  %151 = zext i8 %150 to i32
  %152 = shl i32 %151, 8
  %153 = or i32 %147, %152
  %154 = load ptr, ptr %13, align 8, !tbaa !11
  %155 = getelementptr inbounds i8, ptr %154, i64 8
  %156 = load i8, ptr %155, align 1, !tbaa !34
  %157 = zext i8 %156 to i32
  %158 = or i32 %153, %157
  store i32 %158, ptr %10, align 4, !tbaa !13
  %159 = load i32, ptr %10, align 4, !tbaa !13
  %160 = call i32 (ptr, ...) @printf(ptr noundef @.str.104, i32 noundef %159)
  %161 = load ptr, ptr %13, align 8, !tbaa !11
  %162 = getelementptr inbounds i8, ptr %161, i64 9
  %163 = load i8, ptr %162, align 1, !tbaa !34
  %164 = zext i8 %163 to i32
  %165 = shl i32 %164, 16
  %166 = load ptr, ptr %13, align 8, !tbaa !11
  %167 = getelementptr inbounds i8, ptr %166, i64 10
  %168 = load i8, ptr %167, align 1, !tbaa !34
  %169 = zext i8 %168 to i32
  %170 = shl i32 %169, 8
  %171 = or i32 %165, %170
  %172 = load ptr, ptr %13, align 8, !tbaa !11
  %173 = getelementptr inbounds i8, ptr %172, i64 11
  %174 = load i8, ptr %173, align 1, !tbaa !34
  %175 = zext i8 %174 to i32
  %176 = or i32 %171, %175
  store i32 %176, ptr %11, align 4, !tbaa !13
  %177 = load i32, ptr %11, align 4, !tbaa !13
  %178 = call i32 (ptr, ...) @printf(ptr noundef @.str.105, i32 noundef %177)
  %179 = load i32, ptr %10, align 4, !tbaa !13
  %180 = load i32, ptr %11, align 4, !tbaa !13
  %181 = add nsw i32 %179, %180
  %182 = load i32, ptr %9, align 4, !tbaa !13
  %183 = icmp sgt i32 %181, %182
  br i1 %183, label %184, label %186

184:                                              ; preds = %108
  %185 = call i32 (ptr, ...) @printf(ptr noundef @.str.106)
  br label %195

186:                                              ; preds = %108
  %187 = load i32, ptr %8, align 4, !tbaa !13
  %188 = load i32, ptr %11, align 4, !tbaa !13
  %189 = icmp slt i32 %187, %188
  br i1 %189, label %190, label %192

190:                                              ; preds = %186
  %191 = call i32 (ptr, ...) @printf(ptr noundef @.str.100)
  br label %194

192:                                              ; preds = %186
  %193 = call i32 (ptr, ...) @printf(ptr noundef @.str.107)
  br label %194

194:                                              ; preds = %192, %190
  br label %195

195:                                              ; preds = %194, %184
  br label %196

196:                                              ; preds = %195, %106
  br label %197

197:                                              ; preds = %196, %98
  br label %198

198:                                              ; preds = %197, %75
  %199 = load i32, ptr %5, align 4, !tbaa !13
  %200 = load i32, ptr %8, align 4, !tbaa !13
  %201 = icmp slt i32 %199, %200
  br i1 %201, label %202, label %204

202:                                              ; preds = %198
  %203 = call i32 (ptr, ...) @printf(ptr noundef @.str.91)
  store i32 0, ptr %5, align 4, !tbaa !13
  br label %213

204:                                              ; preds = %198
  %205 = load i32, ptr %8, align 4, !tbaa !13
  %206 = load ptr, ptr %13, align 8, !tbaa !11
  %207 = sext i32 %205 to i64
  %208 = getelementptr inbounds i8, ptr %206, i64 %207
  store ptr %208, ptr %13, align 8, !tbaa !11
  %209 = load i32, ptr %8, align 4, !tbaa !13
  %210 = load i32, ptr %5, align 4, !tbaa !13
  %211 = sub nsw i32 %210, %209
  store i32 %211, ptr %5, align 4, !tbaa !13
  %212 = call i32 (ptr, ...) @printf(ptr noundef @.str.108)
  br label %213

213:                                              ; preds = %204, %202
  br label %17, !llvm.loop !97

214:                                              ; preds = %30, %17
  %215 = call i32 (ptr, ...) @printf(ptr noundef @.str.109)
  %216 = load ptr, ptr @stdout, align 8, !tbaa !98
  %217 = call i32 @fflush(ptr noundef %216)
  call void @llvm.lifetime.end.p0(i64 8, ptr %13) #10
  call void @llvm.lifetime.end.p0(i64 4, ptr %12) #10
  call void @llvm.lifetime.end.p0(i64 4, ptr %11) #10
  call void @llvm.lifetime.end.p0(i64 4, ptr %10) #10
  call void @llvm.lifetime.end.p0(i64 4, ptr %9) #10
  call void @llvm.lifetime.end.p0(i64 4, ptr %8) #10
  call void @llvm.lifetime.end.p0(i64 4, ptr %7) #10
  call void @llvm.lifetime.end.p0(i64 4, ptr %6) #10
  call void @llvm.lifetime.end.p0(i64 4, ptr %5) #10
  ret void
}

; Function Attrs: nounwind uwtable
define internal void @copy_flags(ptr noundef %0) #0 {
  %2 = alloca ptr, align 8
  %3 = alloca i32, align 4
  %4 = alloca ptr, align 8
  store ptr %0, ptr %2, align 8, !tbaa !9
  call void @llvm.lifetime.start.p0(i64 4, ptr %3) #10
  call void @llvm.lifetime.start.p0(i64 8, ptr %4) #10
  %5 = load ptr, ptr %2, align 8, !tbaa !9
  %6 = call ptr @BIO_next(ptr noundef %5)
  store ptr %6, ptr %4, align 8, !tbaa !9
  %7 = load ptr, ptr %4, align 8, !tbaa !9
  %8 = call i32 @BIO_test_flags(ptr noundef %7, i32 noundef 15)
  store i32 %8, ptr %3, align 4, !tbaa !13
  %9 = load ptr, ptr %2, align 8, !tbaa !9
  call void @BIO_clear_flags(ptr noundef %9, i32 noundef 15)
  %10 = load ptr, ptr %2, align 8, !tbaa !9
  %11 = load i32, ptr %3, align 4, !tbaa !13
  call void @BIO_set_flags(ptr noundef %10, i32 noundef %11)
  call void @llvm.lifetime.end.p0(i64 8, ptr %4) #10
  call void @llvm.lifetime.end.p0(i64 4, ptr %3) #10
  ret void
}

; Function Attrs: nounwind uwtable
define internal i32 @tls_dump_read(ptr noundef %0, ptr noundef %1, i32 noundef %2) #0 {
  %4 = alloca ptr, align 8
  %5 = alloca ptr, align 8
  %6 = alloca i32, align 4
  %7 = alloca i32, align 4
  %8 = alloca ptr, align 8
  store ptr %0, ptr %4, align 8, !tbaa !9
  store ptr %1, ptr %5, align 8, !tbaa !11
  store i32 %2, ptr %6, align 4, !tbaa !13
  call void @llvm.lifetime.start.p0(i64 4, ptr %7) #10
  call void @llvm.lifetime.start.p0(i64 8, ptr %8) #10
  %9 = load ptr, ptr %4, align 8, !tbaa !9
  %10 = call ptr @BIO_next(ptr noundef %9)
  store ptr %10, ptr %8, align 8, !tbaa !9
  %11 = load ptr, ptr %8, align 8, !tbaa !9
  %12 = load ptr, ptr %5, align 8, !tbaa !11
  %13 = load i32, ptr %6, align 4, !tbaa !13
  %14 = call i32 @BIO_read(ptr noundef %11, ptr noundef %12, i32 noundef %13)
  store i32 %14, ptr %7, align 4, !tbaa !13
  %15 = load ptr, ptr %4, align 8, !tbaa !9
  call void @copy_flags(ptr noundef %15)
  %16 = load i32, ptr %7, align 4, !tbaa !13
  %17 = icmp sgt i32 %16, 0
  br i1 %17, label %18, label %21

18:                                               ; preds = %3
  %19 = load ptr, ptr %5, align 8, !tbaa !11
  %20 = load i32, ptr %7, align 4, !tbaa !13
  call void @dump_data(ptr noundef %19, i32 noundef %20)
  br label %21

21:                                               ; preds = %18, %3
  %22 = load i32, ptr %7, align 4, !tbaa !13
  call void @llvm.lifetime.end.p0(i64 8, ptr %8) #10
  call void @llvm.lifetime.end.p0(i64 4, ptr %7) #10
  ret i32 %22
}