; Function Attrs: nounwind uwtable
define internal i32 @tls_dump_read(ptr noundef %0, ptr noundef %1, i32 noundef %2) #0 {
  %4 = tail call ptr @BIO_next(ptr noundef %0) #14
  %5 = tail call i32 @BIO_read(ptr noundef %4, ptr noundef %1, i32 noundef %2) #14
  %6 = tail call ptr @BIO_next(ptr noundef %0) #14
  %7 = tail call i32 @BIO_test_flags(ptr noundef %6, i32 noundef 15) #14
  tail call void @BIO_clear_flags(ptr noundef %0, i32 noundef 15) #14
  tail call void @BIO_set_flags(ptr noundef %0, i32 noundef %7) #14
  %8 = icmp sgt i32 %5, 0
  br i1 %8, label %9, label %125

9:                                                ; preds = %3
  %puts.i = tail call i32 @puts(ptr nonnull dereferenceable(1) @str)
  br label %10

10:                                               ; preds = %118, %9
  %.073.i = phi ptr [ %1, %9 ], [ %120, %118 ]
  %.05272.i = phi i32 [ %5, %9 ], [ %121, %118 ]
  %.not.i = icmp eq i32 %.05272.i, %5
  br i1 %.not.i, label %12, label %11

11:                                               ; preds = %10
  %puts58.i = tail call i32 @puts(ptr nonnull dereferenceable(1) @str.1)
  br label %12

12:                                               ; preds = %11, %10
  %puts59.i = tail call i32 @puts(ptr nonnull dereferenceable(1) @str.2)
  %13 = icmp samesign ult i32 %.05272.i, 13
  br i1 %13, label %.loopexit.sink.split.i, label %14

14:                                               ; preds = %12
  %15 = load i8, ptr %.073.i, align 1, !tbaa !9
  %16 = zext i8 %15 to i32
  %17 = tail call i32 (ptr, ...) @printf(ptr noundef nonnull dereferenceable(1) @.str.92, i32 noundef %16)
  %18 = getelementptr inbounds nuw i8, ptr %.073.i, i64 1
  %19 = load i8, ptr %18, align 1, !tbaa !9
  %20 = zext i8 %19 to i32
  %21 = getelementptr inbounds nuw i8, ptr %.073.i, i64 2
  %22 = load i8, ptr %21, align 1, !tbaa !9
  %23 = zext i8 %22 to i32
  %24 = tail call i32 (ptr, ...) @printf(ptr noundef nonnull dereferenceable(1) @.str.93, i32 noundef %20, i32 noundef %23)
  %25 = getelementptr inbounds nuw i8, ptr %.073.i, i64 3
  %26 = load i8, ptr %25, align 1, !tbaa !9
  %27 = zext i8 %26 to i32
  %28 = shl nuw nsw i32 %27, 8
  %29 = getelementptr inbounds nuw i8, ptr %.073.i, i64 4
  %30 = load i8, ptr %29, align 1, !tbaa !9
  %31 = zext i8 %30 to i32
  %32 = or disjoint i32 %28, %31
  %33 = tail call i32 (ptr, ...) @printf(ptr noundef nonnull dereferenceable(1) @.str.94, i32 noundef %32)
  %34 = tail call i32 (ptr, ...) @printf(ptr noundef nonnull dereferenceable(1) @.str.95)
  br label %35

35:                                               ; preds = %35, %14
  %indvars.iv.i = phi i64 [ 5, %14 ], [ %indvars.iv.next.i, %35 ]
  %36 = getelementptr inbounds nuw i8, ptr %.073.i, i64 %indvars.iv.i
  %37 = load i8, ptr %36, align 1, !tbaa !9
  %38 = zext i8 %37 to i32
  %39 = tail call i32 (ptr, ...) @printf(ptr noundef nonnull dereferenceable(1) @.str.96, i32 noundef %38)
  %indvars.iv.next.i = add nuw nsw i64 %indvars.iv.i, 1
  %exitcond.not.i = icmp eq i64 %indvars.iv.next.i, 11
  br i1 %exitcond.not.i, label %40, label %35, !llvm.loop !10

40:                                               ; preds = %35
  %41 = getelementptr inbounds nuw i8, ptr %.073.i, i64 11
  %42 = load i8, ptr %41, align 1, !tbaa !9
  %43 = zext i8 %42 to i32
  %44 = shl nuw nsw i32 %43, 8
  %45 = getelementptr inbounds nuw i8, ptr %.073.i, i64 12
  %46 = load i8, ptr %45, align 1, !tbaa !9
  %47 = zext i8 %46 to i32
  %48 = or disjoint i32 %44, %47
  %49 = tail call i32 (ptr, ...) @printf(ptr noundef nonnull dereferenceable(1) @.str.97, i32 noundef %48)
  %50 = getelementptr inbounds nuw i8, ptr %.073.i, i64 13
  %51 = add nsw i32 %.05272.i, -13
  %52 = icmp eq i8 %15, 22
  br i1 %52, label %53, label %116

53:                                               ; preds = %40
  %puts60.i = tail call i32 @puts(ptr nonnull dereferenceable(1) @str.3)
  %.not61.i = icmp eq i32 %32, 0
  br i1 %.not61.i, label %54, label %.sink.split.i

54:                                               ; preds = %53
  %55 = icmp samesign ult i32 %.05272.i, 25
  %56 = icmp samesign ult i32 %48, 12
  %or.cond.i = select i1 %55, i1 true, i1 %56
  br i1 %or.cond.i, label %.sink.split.i, label %57

57:                                               ; preds = %54
  %58 = load i8, ptr %50, align 1, !tbaa !9
  %59 = zext i8 %58 to i32
  %60 = tail call i32 (ptr, ...) @printf(ptr noundef nonnull dereferenceable(1) @.str.101, i32 noundef %59)
  %61 = getelementptr inbounds nuw i8, ptr %.073.i, i64 14
  %62 = load i8, ptr %61, align 1, !tbaa !9
  %63 = zext i8 %62 to i32
  %64 = shl nuw nsw i32 %63, 16
  %65 = getelementptr inbounds nuw i8, ptr %.073.i, i64 15
  %66 = load i8, ptr %65, align 1, !tbaa !9
  %67 = zext i8 %66 to i32
  %68 = shl nuw nsw i32 %67, 8
  %69 = or disjoint i32 %68, %64
  %70 = getelementptr inbounds nuw i8, ptr %.073.i, i64 16
  %71 = load i8, ptr %70, align 1, !tbaa !9
  %72 = zext i8 %71 to i32
  %73 = or disjoint i32 %69, %72
  %74 = tail call i32 (ptr, ...) @printf(ptr noundef nonnull dereferenceable(1) @.str.102, i32 noundef %73)
  %75 = getelementptr inbounds nuw i8, ptr %.073.i, i64 17
  %76 = load i8, ptr %75, align 1, !tbaa !9
  %77 = zext i8 %76 to i32
  %78 = shl nuw nsw i32 %77, 8
  %79 = getelementptr inbounds nuw i8, ptr %.073.i, i64 18
  %80 = load i8, ptr %79, align 1, !tbaa !9
  %81 = zext i8 %80 to i32
  %82 = or disjoint i32 %78, %81
  %83 = tail call i32 (ptr, ...) @printf(ptr noundef nonnull dereferenceable(1) @.str.103, i32 noundef %82)
  %84 = getelementptr inbounds nuw i8, ptr %.073.i, i64 19
  %85 = load i8, ptr %84, align 1, !tbaa !9
  %86 = zext i8 %85 to i32
  %87 = shl nuw nsw i32 %86, 16
  %88 = getelementptr inbounds nuw i8, ptr %.073.i, i64 20
  %89 = load i8, ptr %88, align 1, !tbaa !9
  %90 = zext i8 %89 to i32
  %91 = shl nuw nsw i32 %90, 8
  %92 = or disjoint i32 %91, %87
  %93 = getelementptr inbounds nuw i8, ptr %.073.i, i64 21
  %94 = load i8, ptr %93, align 1, !tbaa !9
  %95 = zext i8 %94 to i32
  %96 = or disjoint i32 %92, %95
  %97 = tail call i32 (ptr, ...) @printf(ptr noundef nonnull dereferenceable(1) @.str.104, i32 noundef %96)
  %98 = getelementptr inbounds nuw i8, ptr %.073.i, i64 22
  %99 = load i8, ptr %98, align 1, !tbaa !9
  %100 = zext i8 %99 to i32
  %101 = shl nuw nsw i32 %100, 16
  %102 = getelementptr inbounds nuw i8, ptr %.073.i, i64 23
  %103 = load i8, ptr %102, align 1, !tbaa !9
  %104 = zext i8 %103 to i32
  %105 = shl nuw nsw i32 %104, 8
  %106 = or disjoint i32 %105, %101
  %107 = getelementptr inbounds nuw i8, ptr %.073.i, i64 24
  %108 = load i8, ptr %107, align 1, !tbaa !9
  %109 = zext i8 %108 to i32
  %110 = or disjoint i32 %106, %109
  %111 = tail call i32 (ptr, ...) @printf(ptr noundef nonnull dereferenceable(1) @.str.105, i32 noundef %110)
  %112 = add nuw nsw i32 %110, %96
  %113 = icmp samesign ugt i32 %112, %73
  br i1 %113, label %.sink.split.i, label %114

114:                                              ; preds = %57
  %115 = icmp samesign ult i32 %48, %110
  %str.5.str.4.i = select i1 %115, ptr @str.7, ptr @str.4
  br label %.sink.split.i

.sink.split.i:                                    ; preds = %114, %57, %54, %53
  %str.8.sink.i = phi ptr [ @str.8, %53 ], [ @str.7, %54 ], [ @str.6, %57 ], [ %str.5.str.4.i, %114 ]
  %puts66.i = tail call i32 @puts(ptr nonnull dereferenceable(1) %str.8.sink.i)
  br label %116

116:                                              ; preds = %.sink.split.i, %40
  %117 = icmp slt i32 %51, %48
  br i1 %117, label %.loopexit.sink.split.i, label %118

118:                                              ; preds = %116
  %119 = zext nneg i32 %48 to i64
  %120 = getelementptr inbounds nuw i8, ptr %50, i64 %119
  %121 = sub nsw i32 %51, %48
  %puts67.i = tail call i32 @puts(ptr nonnull dereferenceable(1) @str.9)
  %122 = icmp sgt i32 %121, 0
  br i1 %122, label %10, label %dump_data.exit, !llvm.loop !12

.loopexit.sink.split.i:                           ; preds = %116, %12
  %str.10.sink.i = phi ptr [ @str.11, %12 ], [ @str.11, %116 ]
  %puts68.i = tail call i32 @puts(ptr nonnull dereferenceable(1) %str.10.sink.i)
  br label %dump_data.exit

dump_data.exit:                                   ; preds = %118, %.loopexit.sink.split.i
  %puts70.i = tail call i32 @puts(ptr nonnull dereferenceable(1) @str.12)
  %123 = load ptr, ptr @stdout, align 8, !tbaa !13
  %124 = tail call i32 @fflush(ptr noundef %123)
  br label %125

125:                                              ; preds = %dump_data.exit, %3
  ret i32 %5
}